; Function Attrs: nounwind uwtable
define hidden noundef zeroext i1 @SDL_SetAppMetadata_REAL(ptr noundef %0, ptr noundef %1, ptr noundef %2) local_unnamed_addr #2 {
  %4 = tail call fastcc zeroext i1 @SDL_ValidMetadataProperty(ptr noundef nonnull @.str)
  br i1 %4, label %7, label %5

5:                                                ; preds = %3
  %6 = tail call zeroext i1 (ptr, ...) @SDL_SetError_REAL(ptr noundef nonnull @.str.3, ptr noundef nonnull @.str.4) #11
  br label %SDL_SetAppMetadataProperty_REAL.exit

7:                                                ; preds = %3
  %8 = tail call i32 @SDL_GetGlobalProperties_REAL() #11
  %9 = tail call zeroext i1 @SDL_SetStringProperty_REAL(i32 noundef %8, ptr noundef nonnull @.str, ptr noundef %0) #11
  br label %SDL_SetAppMetadataProperty_REAL.exit

SDL_SetAppMetadataProperty_REAL.exit:             ; preds = %5, %7
  %10 = tail call fastcc zeroext i1 @SDL_ValidMetadataProperty(ptr noundef nonnull @.str.1)
  br i1 %10, label %13, label %11

11:                                               ; preds = %SDL_SetAppMetadataProperty_REAL.exit
  %12 = tail call zeroext i1 (ptr, ...) @SDL_SetError_REAL(ptr noundef nonnull @.str.3, ptr noundef nonnull @.str.4) #11
  br label %SDL_SetAppMetadataProperty_REAL.exit4

13:                                               ; preds = %SDL_SetAppMetadataProperty_REAL.exit
  %14 = tail call i32 @SDL_GetGlobalProperties_REAL() #11
  %15 = tail call zeroext i1 @SDL_SetStringProperty_REAL(i32 noundef %14, ptr noundef nonnull @.str.1, ptr noundef %1) #11
  br label %SDL_SetAppMetadataProperty_REAL.exit4

SDL_SetAppMetadataProperty_REAL.exit4:            ; preds = %11, %13
  %16 = tail call fastcc zeroext i1 @SDL_ValidMetadataProperty(ptr noundef nonnull @.str.2)
  br i1 %16, label %19, label %17

17:                                               ; preds = %SDL_SetAppMetadataProperty_REAL.exit4
  %18 = tail call zeroext i1 (ptr, ...) @SDL_SetError_REAL(ptr noundef nonnull @.str.3, ptr noundef nonnull @.str.4) #11
  br label %SDL_SetAppMetadataProperty_REAL.exit6

19:                                               ; preds = %SDL_SetAppMetadataProperty_REAL.exit4
  %20 = tail call i32 @SDL_GetGlobalProperties_REAL() #11
  %21 = tail call zeroext i1 @SDL_SetStringProperty_REAL(i32 noundef %20, ptr noundef nonnull @.str.2, ptr noundef %2) #11
  br label %SDL_SetAppMetadataProperty_REAL.exit6

SDL_SetAppMetadataProperty_REAL.exit6:            ; preds = %17, %19
  ret i1 true
}